CCS PCM C Compiler, Version 5.109, 5967               26-Thg5-23 14:51

               Filename:   C:\Users\Minh Toan\OneDrive\desktop\main.lst

               ROM used:   93 words (1%)
                           Largest free fragment is 2048
               RAM used:   9 (2%) at main() level
                           9 (2%) worst case
               Stack used: 0 locations
               Stack size: 8

*
0000:  MOVLW  00
0001:  MOVWF  0A
0002:  GOTO   01A
0003:  NOP
.................... #include <main.h>
.................... #include <16F877A.h>
.................... //////////// Standard Header file for the PIC16F877A device ////////////////
.................... ///////////////////////////////////////////////////////////////////////////
.................... ////        (C) Copyright 1996, 2013 Custom Computer Services          ////
.................... //// This source code may only be used by licensed users of the CCS C  ////
.................... //// compiler.  This source code may only be distributed to other      ////
.................... //// licensed users of the CCS C compiler.  No other use, reproduction ////
.................... //// or distribution is permitted without written permission.          ////
.................... //// Derivative programs created using this software in object code    ////
.................... //// form are not restricted in any way.                               ////
.................... ///////////////////////////////////////////////////////////////////////////
.................... #device PIC16F877A
.................... 
.................... #list
.................... 
.................... #device ADC=16
.................... 
.................... #FUSES NOWDT                 	//No Watch Dog Timer
.................... #FUSES WRT_1000              	//Program Memory Write Protected from 0 to 0x0FFF
.................... 
.................... #use delay(crystal=20000000)
0004:  MOVLW  22
0005:  MOVWF  04
0006:  BCF    03.7
0007:  MOVF   00,W
0008:  BTFSC  03.2
0009:  GOTO   017
000A:  MOVLW  06
000B:  MOVWF  78
000C:  CLRF   77
000D:  DECFSZ 77,F
000E:  GOTO   00D
000F:  DECFSZ 78,F
0010:  GOTO   00C
0011:  MOVLW  7B
0012:  MOVWF  77
0013:  DECFSZ 77,F
0014:  GOTO   013
0015:  DECFSZ 00,F
0016:  GOTO   00A
0017:  BCF    0A.3
0018:  BCF    0A.4
0019:  GOTO   03C (RETURN)
.................... 
.................... 
.................... 
.................... int16 value = 0;
.................... #byte T2CON = 0x12
.................... #byte TMR2 = 0x11
.................... #byte PR2 = 0x92
.................... #byte PIR1 = 0x0C
.................... #byte PIE1 = 0x8C
.................... #byte trisc = 0x87
.................... #byte CCPR1L = 0x15
.................... #byte CCPR1H = 0x16
.................... #byte CCP1CON = 0x17
.................... #bit CCP1CON5 = CCP1CON.5
.................... #bit CCP1CON4 = CCP1CON.4
.................... 
.................... void main()
001A:  MOVF   03,W
001B:  ANDLW  1F
001C:  MOVWF  03
001D:  CLRF   21
001E:  CLRF   20
001F:  BSF    03.5
0020:  BSF    1F.0
0021:  BSF    1F.1
0022:  BSF    1F.2
0023:  BCF    1F.3
0024:  MOVLW  07
0025:  MOVWF  1C
0026:  BCF    03.7
.................... {
....................    setup_adc_ports(AN0);
0027:  BCF    1F.0
0028:  BSF    1F.1
0029:  BSF    1F.2
002A:  BSF    1F.3
....................    setup_adc(ADC_CLOCK_INTERNAL);
002B:  BCF    1F.6
002C:  BCF    03.5
002D:  BSF    1F.6
002E:  BSF    1F.7
002F:  BSF    03.5
0030:  BCF    1F.7
0031:  BCF    03.5
0032:  BSF    1F.0
....................    set_adc_channel(0);
0033:  MOVLW  00
0034:  MOVWF  78
0035:  MOVF   1F,W
0036:  ANDLW  C7
0037:  IORWF  78,W
0038:  MOVWF  1F
....................    delay_ms(1);
0039:  MOVLW  01
003A:  MOVWF  22
003B:  GOTO   004
....................    PR2 = 0xFF; //255
003C:  MOVLW  FF
003D:  BSF    03.5
003E:  MOVWF  12
....................    CCPR1L = 125; //percent of high
003F:  MOVLW  7D
0040:  BCF    03.5
0041:  MOVWF  15
....................    CCP1CON4 = 1;
0042:  BSF    17.4
....................    CCP1CON5 = 1;
0043:  BSF    17.5
....................    CCP1CON = 0b00001100;
0044:  MOVLW  0C
0045:  MOVWF  17
....................    trisc = 0x00;
0046:  BSF    03.5
0047:  CLRF   07
....................    T2CON = 0b00000100; //timer2 is on
0048:  MOVLW  04
0049:  BCF    03.5
004A:  MOVWF  12
....................    TMR2 = 0;
004B:  CLRF   11
....................    while(TRUE)
....................    {
....................       value = CCP1CON4*1 + CCP1CON5*2 + CCPR1L;
004C:  MOVLW  00
004D:  BTFSC  17.4
004E:  MOVLW  01
004F:  MOVWF  22
0050:  MOVLW  00
0051:  BTFSC  17.5
0052:  MOVLW  01
0053:  MOVWF  77
0054:  BCF    03.0
0055:  RLF    77,F
0056:  MOVF   77,W
0057:  ADDWF  22,W
0058:  ADDWF  15,W
0059:  MOVWF  20
005A:  CLRF   21
005B:  GOTO   04C
....................    }
.................... 
.................... }
005C:  SLEEP

Configuration Fuses:
   Word  1: 3972   HS NOWDT PUT BROWNOUT NOLVP NOCPD WRT_1000 NODEBUG NOPROTECT
